; ModuleID = 'bench/linux/original/utxfmutex.ll'
source_filename = "bench/linux/original/utxfmutex.ll"
target datalayout = "e-m:e-p270:32:32-p271:32:32-p272:64:64-i64:64-i128:128-f80:128-n8:16:32:64-S128"
target triple = "x86_64-unknown-linux-gnu"

module asm ".section \22.export_symbol\22,\22a\22 ; __export_symbol_acpi_acquire_mutex: ; .asciz \22\22 ; .asciz \22\22 ; .balign 8 ; .quad acpi_acquire_mutex ; .previous"
module asm ".section \22.export_symbol\22,\22a\22 ; __export_symbol_acpi_release_mutex: ; .asciz \22\22 ; .asciz \22\22 ; .balign 8 ; .quad acpi_release_mutex ; .previous"

@__UNIQUE_ID___addressable_acpi_acquire_mutex150 = internal global ptr @acpi_acquire_mutex, section ".discard.addressable", align 8
@__UNIQUE_ID___addressable_acpi_release_mutex151 = internal global ptr @acpi_release_mutex, section ".discard.addressable", align 8
@llvm.compiler.used = appending global [2 x ptr] [ptr @__UNIQUE_ID___addressable_acpi_acquire_mutex150, ptr @__UNIQUE_ID___addressable_acpi_release_mutex151], section "llvm.metadata"

; Function Attrs: fn_ret_thunk_extern nounwind null_pointer_is_valid
define dso_local i32 @acpi_acquire_mutex(ptr noundef %0, ptr noundef %1, i16 noundef zeroext %2) #0 align 16 {
  %4 = alloca ptr, align 8
  call void @llvm.lifetime.start.p0(i64 8, ptr nonnull %4) #3
  %5 = icmp ne ptr %0, null
  %6 = icmp ne ptr %1, null
  %7 = or i1 %5, %6
  br i1 %7, label %8, label %.thread

8:                                                ; preds = %3
  store ptr %0, ptr %4, align 8
  br i1 %6, label %9, label %12

9:                                                ; preds = %8
  %10 = call i32 @acpi_get_handle(ptr noundef %0, ptr noundef nonnull %1, ptr noundef nonnull %4) #3
  %11 = icmp eq i32 %10, 0
  br i1 %11, label %thread-pre-split, label %.thread

thread-pre-split:                                 ; preds = %9
  %.pr = load ptr, ptr %4, align 8
  br label %12

12:                                               ; preds = %thread-pre-split, %8
  %13 = phi ptr [ %.pr, %thread-pre-split ], [ %0, %8 ]
  %14 = icmp eq ptr %13, null
  br i1 %14, label %.thread, label %15

15:                                               ; preds = %12
  %16 = getelementptr inbounds i8, ptr %13, i64 9
  %17 = load i8, ptr %16, align 1
  %18 = icmp eq i8 %17, 9
  br i1 %18, label %19, label %.thread

19:                                               ; preds = %15
  %20 = call ptr @acpi_ns_get_attached_object(ptr noundef nonnull %13) #3
  %21 = icmp eq ptr %20, null
  br i1 %21, label %.thread, label %22

.thread:                                          ; preds = %12, %15, %9, %3, %19
  %.ph4 = phi i32 [ 4097, %3 ], [ %10, %9 ], [ 8, %15 ], [ 8, %12 ], [ 9, %19 ]
  call void @llvm.lifetime.end.p0(i64 8, ptr nonnull %4) #3
  br label %26

22:                                               ; preds = %19
  call void @llvm.lifetime.end.p0(i64 8, ptr nonnull %4) #3
  %23 = getelementptr inbounds i8, ptr %20, i64 16
  %24 = load ptr, ptr %23, align 8
  %25 = call i32 @acpi_os_wait_semaphore(ptr noundef %24, i32 noundef 1, i16 noundef zeroext %2) #3
  br label %26

26:                                               ; preds = %.thread, %22
  %27 = phi i32 [ %25, %22 ], [ %.ph4, %.thread ]
  ret i32 %27
}

; Function Attrs: mustprogress nocallback nofree nosync nounwind willreturn memory(argmem: readwrite)
declare void @llvm.lifetime.start.p0(i64 immarg, ptr nocapture) #1

; Function Attrs: null_pointer_is_valid
declare dso_local i32 @acpi_os_wait_semaphore(ptr noundef, i32 noundef, i16 noundef zeroext) local_unnamed_addr #2

; Function Attrs: mustprogress nocallback nofree nosync nounwind willreturn memory(argmem: readwrite)
declare void @llvm.lifetime.end.p0(i64 immarg, ptr nocapture) #1

; Function Attrs: fn_ret_thunk_extern nounwind null_pointer_is_valid
define dso_local i32 @acpi_release_mutex(ptr noundef %0, ptr noundef %1) #0 align 16 {
  %3 = alloca ptr, align 8
  call void @llvm.lifetime.start.p0(i64 8, ptr nonnull %3) #3
  %4 = icmp ne ptr %0, null
  %5 = icmp ne ptr %1, null
  %6 = or i1 %4, %5
  br i1 %6, label %7, label %.thread

7:                                                ; preds = %2
  store ptr %0, ptr %3, align 8
  br i1 %5, label %8, label %11

8:                                                ; preds = %7
  %9 = call i32 @acpi_get_handle(ptr noundef %0, ptr noundef nonnull %1, ptr noundef nonnull %3) #3
  %10 = icmp eq i32 %9, 0
  br i1 %10, label %thread-pre-split, label %.thread

thread-pre-split:                                 ; preds = %8
  %.pr = load ptr, ptr %3, align 8
  br label %11

11:                                               ; preds = %thread-pre-split, %7
  %12 = phi ptr [ %.pr, %thread-pre-split ], [ %0, %7 ]
  %13 = icmp eq ptr %12, null
  br i1 %13, label %.thread, label %14

14:                                               ; preds = %11
  %15 = getelementptr inbounds i8, ptr %12, i64 9
  %16 = load i8, ptr %15, align 1
  %17 = icmp eq i8 %16, 9
  br i1 %17, label %18, label %.thread

18:                                               ; preds = %14
  %19 = call ptr @acpi_ns_get_attached_object(ptr noundef nonnull %12) #3
  %20 = icmp eq ptr %19, null
  br i1 %20, label %.thread, label %21

.thread:                                          ; preds = %11, %14, %8, %2, %18
  %.ph4 = phi i32 [ 4097, %2 ], [ %9, %8 ], [ 8, %14 ], [ 8, %11 ], [ 9, %18 ]
  call void @llvm.lifetime.end.p0(i64 8, ptr nonnull %3) #3
  br label %25

21:                                               ; preds = %18
  call void @llvm.lifetime.end.p0(i64 8, ptr nonnull %3) #3
  %22 = getelementptr inbounds i8, ptr %19, i64 16
  %23 = load ptr, ptr %22, align 8
  %24 = call i32 @acpi_os_signal_semaphore(ptr noundef %23, i32 noundef 1) #3
  br label %25

25:                                               ; preds = %.thread, %21
  %26 = phi i32 [ 0, %21 ], [ %.ph4, %.thread ]
  ret i32 %26
}

; Function Attrs: null_pointer_is_valid
declare dso_local i32 @acpi_os_signal_semaphore(ptr noundef, i32 noundef) local_unnamed_addr #2

; Function Attrs: null_pointer_is_valid
declare dso_local i32 @acpi_get_handle(ptr noundef, ptr noundef, ptr noundef) local_unnamed_addr #2

; Function Attrs: null_pointer_is_valid
declare dso_local ptr @acpi_ns_get_attached_object(ptr noundef) local_unnamed_addr #2


!llvm.module.flags = !{!0, !1, !2, !3, !4}

!0 = !{i32 1, !"wchar_size", i32 2}
!1 = !{i32 8, !"cf-protection-branch", i32 1}
!2 = !{i32 4, !"function_return_thunk_extern", i32 1}
!3 = !{i32 4, !"indirect_branch_cs_prefix", i32 1}
!4 = !{i32 4, !"SkipRaxSetup", i32 1}
